; Function Attrs: mustprogress uwtable
define noundef i32 @_ZNK6icu_7514SimpleTimeZone9getOffsetEhiiihiR10UErrorCode(ptr noundef nonnull align 8 dereferenceable(160) %this, i8 noundef zeroext %era, i32 noundef %year, i32 noundef %month, i32 noundef %day, i8 noundef zeroext %dayOfWeek, i32 noundef %millis, ptr noundef nonnull align 4 dereferenceable(4) %status) unnamed_addr #1 align 2 {
entry:
  %or.cond = icmp ugt i32 %month, 11
  br i1 %or.cond, label %if.then, label %if.end

if.then:                                          ; preds = %entry
  store i32 1, ptr %status, align 4
  br label %return

if.end:                                           ; preds = %entry
  %and.i.i = and i32 %year, 3
  %cmp.i.i = icmp eq i32 %and.i.i, 0
  br i1 %cmp.i.i, label %land.rhs.i.i, label %_ZN6icu_755Grego10isLeapYearEi.exit.thread.i

land.rhs.i.i:                                     ; preds = %if.end
  %rem.i.i = srem i32 %year, 100
  %cmp1.not.i.i = icmp ne i32 %rem.i.i, 0
  %rem2.i.i = srem i32 %year, 400
  %cmp3.i.not.i = icmp eq i32 %rem2.i.i, 0
  %or.cond.i = or i1 %cmp1.not.i.i, %cmp3.i.not.i
  br i1 %or.cond.i, label %_ZN6icu_755Grego11monthLengthEii.exit, label %_ZN6icu_755Grego10isLeapYearEi.exit.thread.i

_ZN6icu_755Grego10isLeapYearEi.exit.thread.i:     ; preds = %land.rhs.i.i, %if.end
  br label %_ZN6icu_755Grego11monthLengthEii.exit

_ZN6icu_755Grego11monthLengthEii.exit:            ; preds = %land.rhs.i.i, %_ZN6icu_755Grego10isLeapYearEi.exit.thread.i
  %0 = phi i32 [ 0, %_ZN6icu_755Grego10isLeapYearEi.exit.thread.i ], [ 12, %land.rhs.i.i ]
  %add.i = add nuw nsw i32 %0, %month
  %idxprom.i = zext nneg i32 %add.i to i64
  %arrayidx.i = getelementptr inbounds [24 x i8], ptr @_ZN6icu_755Grego12MONTH_LENGTHE, i64 0, i64 %idxprom.i
  %1 = load i8, ptr %arrayidx.i, align 1
  %conv = sext i8 %1 to i32
  %vtable = load ptr, ptr %this, align 8
  %vfn = getelementptr inbounds i8, ptr %vtable, i64 40
  %2 = load ptr, ptr %vfn, align 8
  %call3 = tail call noundef i32 %2(ptr noundef nonnull align 8 dereferenceable(160) %this, i8 noundef zeroext %era, i32 noundef %year, i32 noundef %month, i32 noundef %day, i8 noundef zeroext %dayOfWeek, i32 noundef %millis, i32 noundef %conv, ptr noundef nonnull align 4 dereferenceable(4) %status)
  br label %return

return:                                           ; preds = %_ZN6icu_755Grego11monthLengthEii.exit, %if.then
  %retval.0 = phi i32 [ 0, %if.then ], [ %call3, %_ZN6icu_755Grego11monthLengthEii.exit ]
  ret i32 %retval.0
}